target datalayout = "e-m:e-p270:32:32-p271:32:32-p272:64:64-i64:64-i128:128-f80:128-n8:16:32:64-S128"
target triple = "x86_64-unknown-linux-gnu"

; Function Attrs: mustprogress nounwind uwtable
define linkonce_odr noundef double @_ZNSt14numeric_limitsIdE7epsilonEv() #5 comdat align 2 {
entry:
  ret double 0x3CB0000000000000
}

; Function Attrs: inlinehint mustprogress nounwind uwtable
define linkonce_odr noundef zeroext i1 @_ZN8QuantLib5closeEdd(double noundef %x, double noundef %y) #3 comdat {
entry:
  %retval = alloca i1, align 1
  %x.addr = alloca double, align 8
  %y.addr = alloca double, align 8
  %diff = alloca double, align 8
  %tolerance = alloca double, align 8
  %cleanup.dest.slot = alloca i32, align 4
  store double %x, ptr %x.addr, align 8, !tbaa !3
  store double %y, ptr %y.addr, align 8, !tbaa !3
  %0 = load double, ptr %x.addr, align 8, !tbaa !3
  %1 = load double, ptr %y.addr, align 8, !tbaa !3
  %cmp = fcmp oeq double %0, %1
  br i1 %cmp, label %if.then, label %if.end

if.then:                                          ; preds = %entry
  store i1 true, ptr %retval, align 1
  br label %return

if.end:                                           ; preds = %entry
  call void @llvm.lifetime.start.p0(i64 8, ptr %diff) #13
  %2 = load double, ptr %x.addr, align 8, !tbaa !3
  %3 = load double, ptr %y.addr, align 8, !tbaa !3
  %sub = fsub double %2, %3
  %4 = call double @llvm.fabs.f64(double %sub)
  store double %4, ptr %diff, align 8, !tbaa !3
  call void @llvm.lifetime.start.p0(i64 8, ptr %tolerance) #13
  store double 0x3D05000000000000, ptr %tolerance, align 8, !tbaa !3
  %5 = load double, ptr %x.addr, align 8, !tbaa !3
  %cmp1 = fcmp oeq double %5, 0.000000e+00
  br i1 %cmp1, label %if.then3, label %lor.lhs.false

lor.lhs.false:                                    ; preds = %if.end
  %6 = load double, ptr %y.addr, align 8, !tbaa !3
  %cmp2 = fcmp oeq double %6, 0.000000e+00
  br i1 %cmp2, label %if.then3, label %if.end5

if.then3:                                         ; preds = %lor.lhs.false, %if.end
  %7 = load double, ptr %diff, align 8, !tbaa !3
  %cmp4 = fcmp olt double %7, 0x3A1B900000000000
  store i1 %cmp4, ptr %retval, align 1
  store i32 1, ptr %cleanup.dest.slot, align 4
  br label %cleanup

if.end5:                                          ; preds = %lor.lhs.false
  %8 = load double, ptr %diff, align 8, !tbaa !3
  %9 = load double, ptr %x.addr, align 8, !tbaa !3
  %10 = call double @llvm.fabs.f64(double %9)
  %mul = fmul double 0x3D05000000000000, %10
  %cmp6 = fcmp ole double %8, %mul
  br i1 %cmp6, label %land.rhs, label %land.end

land.rhs:                                         ; preds = %if.end5
  %11 = load double, ptr %diff, align 8, !tbaa !3
  %12 = load double, ptr %y.addr, align 8, !tbaa !3
  %13 = call double @llvm.fabs.f64(double %12)
  %mul7 = fmul double 0x3D05000000000000, %13
  %cmp8 = fcmp ole double %11, %mul7
  br label %land.end

land.end:                                         ; preds = %land.rhs, %if.end5
  %14 = phi i1 [ false, %if.end5 ], [ %cmp8, %land.rhs ]
  store i1 %14, ptr %retval, align 1
  store i32 1, ptr %cleanup.dest.slot, align 4
  br label %cleanup

cleanup:                                          ; preds = %land.end, %if.then3
  call void @llvm.lifetime.end.p0(i64 8, ptr %tolerance) #13
  call void @llvm.lifetime.end.p0(i64 8, ptr %diff) #13
  br label %return

return:                                           ; preds = %cleanup, %if.then
  %15 = load i1, ptr %retval, align 1
  ret i1 %15
}

; Function Attrs: mustprogress uwtable
define noundef double @_ZN8QuantLib26unsafeSabrNormalVolatilityEddddddd(double noundef %strike, double noundef %forward, double noundef %expiryTime, double noundef %alpha, double noundef %beta, double noundef %nu, double noundef %rho) #0 {
entry:
  %strike.addr = alloca double, align 8
  %forward.addr = alloca double, align 8
  %expiryTime.addr = alloca double, align 8
  %alpha.addr = alloca double, align 8
  %beta.addr = alloca double, align 8
  %nu.addr = alloca double, align 8
  %rho.addr = alloca double, align 8
  %oneMinusBeta = alloca double, align 8
  %minusBeta = alloca double, align 8
  %A = alloca double, align 8
  %sqrtA = alloca double, align 8
  %logM = alloca double, align 8
  %epsilon = alloca double, align 8
  %z = alloca double, align 8
  %B = alloca double, align 8
  %C = alloca double, align 8
  %D = alloca double, align 8
  %tmp = alloca double, align 8
  %xx = alloca double, align 8
  %E_1 = alloca double, align 8
  %E_2 = alloca double, align 8
  %E = alloca double, align 8
  %d = alloca double, align 8
  %multiplier = alloca double, align 8
  %F = alloca double, align 8
  store double %strike, ptr %strike.addr, align 8, !tbaa !3
  store double %forward, ptr %forward.addr, align 8, !tbaa !3
  store double %expiryTime, ptr %expiryTime.addr, align 8, !tbaa !3
  store double %alpha, ptr %alpha.addr, align 8, !tbaa !3
  store double %beta, ptr %beta.addr, align 8, !tbaa !3
  store double %nu, ptr %nu.addr, align 8, !tbaa !3
  store double %rho, ptr %rho.addr, align 8, !tbaa !3
  call void @llvm.lifetime.start.p0(i64 8, ptr %oneMinusBeta) #13
  %0 = load double, ptr %beta.addr, align 8, !tbaa !3
  %sub = fsub double 1.000000e+00, %0
  store double %sub, ptr %oneMinusBeta, align 8, !tbaa !3
  call void @llvm.lifetime.start.p0(i64 8, ptr %minusBeta) #13
  %1 = load double, ptr %beta.addr, align 8, !tbaa !3
  %mul = fmul double -1.000000e+00, %1
  store double %mul, ptr %minusBeta, align 8, !tbaa !3
  call void @llvm.lifetime.start.p0(i64 8, ptr %A) #13
  %2 = load double, ptr %forward.addr, align 8, !tbaa !3
  %3 = load double, ptr %strike.addr, align 8, !tbaa !3
  %mul1 = fmul double %2, %3
  %4 = load double, ptr %oneMinusBeta, align 8, !tbaa !3
  %call = call double @pow(double noundef %mul1, double noundef %4) #13, !tbaa !7
  store double %call, ptr %A, align 8, !tbaa !3
  call void @llvm.lifetime.start.p0(i64 8, ptr %sqrtA) #13
  %5 = load double, ptr %A, align 8, !tbaa !3
  %call2 = call double @sqrt(double noundef %5) #13, !tbaa !7
  store double %call2, ptr %sqrtA, align 8, !tbaa !3
  call void @llvm.lifetime.start.p0(i64 8, ptr %logM) #13
  %6 = load double, ptr %forward.addr, align 8, !tbaa !3
  %7 = load double, ptr %strike.addr, align 8, !tbaa !3
  %call3 = call noundef zeroext i1 @_ZN8QuantLib5closeEdd(double noundef %6, double noundef %7)
  br i1 %call3, label %if.else, label %if.then

if.then:                                          ; preds = %entry
  %8 = load double, ptr %forward.addr, align 8, !tbaa !3
  %9 = load double, ptr %strike.addr, align 8, !tbaa !3
  %div = fdiv double %8, %9
  %call4 = call double @log(double noundef %div) #13, !tbaa !7
  store double %call4, ptr %logM, align 8, !tbaa !3
  br label %if.end

if.else:                                          ; preds = %entry
  call void @llvm.lifetime.start.p0(i64 8, ptr %epsilon) #13
  %10 = load double, ptr %forward.addr, align 8, !tbaa !3
  %11 = load double, ptr %strike.addr, align 8, !tbaa !3
  %sub5 = fsub double %10, %11
  %12 = load double, ptr %strike.addr, align 8, !tbaa !3
  %div6 = fdiv double %sub5, %12
  store double %div6, ptr %epsilon, align 8, !tbaa !3
  %13 = load double, ptr %epsilon, align 8, !tbaa !3
  %14 = load double, ptr %epsilon, align 8, !tbaa !3
  %mul7 = fmul double 5.000000e-01, %14
  %15 = load double, ptr %epsilon, align 8, !tbaa !3
  %neg = fneg double %mul7
  %16 = call double @llvm.fmuladd.f64(double %neg, double %15, double %13)
  store double %16, ptr %logM, align 8, !tbaa !3
  call void @llvm.lifetime.end.p0(i64 8, ptr %epsilon) #13
  br label %if.end

if.end:                                           ; preds = %if.else, %if.then
  call void @llvm.lifetime.start.p0(i64 8, ptr %z) #13
  %17 = load double, ptr %nu.addr, align 8, !tbaa !3
  %18 = load double, ptr %alpha.addr, align 8, !tbaa !3
  %div9 = fdiv double %17, %18
  %19 = load double, ptr %sqrtA, align 8, !tbaa !3
  %mul10 = fmul double %div9, %19
  %20 = load double, ptr %logM, align 8, !tbaa !3
  %mul11 = fmul double %mul10, %20
  store double %mul11, ptr %z, align 8, !tbaa !3
  call void @llvm.lifetime.start.p0(i64 8, ptr %B) #13
  %21 = load double, ptr %rho.addr, align 8, !tbaa !3
  %mul12 = fmul double 2.000000e+00, %21
  %22 = load double, ptr %z, align 8, !tbaa !3
  %neg14 = fneg double %mul12
  %23 = call double @llvm.fmuladd.f64(double %neg14, double %22, double 1.000000e+00)
  %24 = load double, ptr %z, align 8, !tbaa !3
  %25 = load double, ptr %z, align 8, !tbaa !3
  %26 = call double @llvm.fmuladd.f64(double %24, double %25, double %23)
  store double %26, ptr %B, align 8, !tbaa !3
  call void @llvm.lifetime.start.p0(i64 8, ptr %C) #13
  %27 = load double, ptr %oneMinusBeta, align 8, !tbaa !3
  %28 = load double, ptr %oneMinusBeta, align 8, !tbaa !3
  %mul16 = fmul double %27, %28
  %29 = load double, ptr %logM, align 8, !tbaa !3
  %mul17 = fmul double %mul16, %29
  %30 = load double, ptr %logM, align 8, !tbaa !3
  %mul18 = fmul double %mul17, %30
  store double %mul18, ptr %C, align 8, !tbaa !3
  call void @llvm.lifetime.start.p0(i64 8, ptr %D) #13
  %31 = load double, ptr %logM, align 8, !tbaa !3
  %32 = load double, ptr %logM, align 8, !tbaa !3
  %mul19 = fmul double %31, %32
  store double %mul19, ptr %D, align 8, !tbaa !3
  call void @llvm.lifetime.start.p0(i64 8, ptr %tmp) #13
  %33 = load double, ptr %B, align 8, !tbaa !3
  %call20 = call double @sqrt(double noundef %33) #13, !tbaa !7
  %34 = load double, ptr %z, align 8, !tbaa !3
  %add = fadd double %call20, %34
  %35 = load double, ptr %rho.addr, align 8, !tbaa !3
  %sub21 = fsub double %add, %35
  %36 = load double, ptr %rho.addr, align 8, !tbaa !3
  %sub22 = fsub double 1.000000e+00, %36
  %div23 = fdiv double %sub21, %sub22
  store double %div23, ptr %tmp, align 8, !tbaa !3
  call void @llvm.lifetime.start.p0(i64 8, ptr %xx) #13
  %37 = load double, ptr %tmp, align 8, !tbaa !3
  %call24 = call double @log(double noundef %37) #13, !tbaa !7
  store double %call24, ptr %xx, align 8, !tbaa !3
  call void @llvm.lifetime.start.p0(i64 8, ptr %E_1) #13
  %38 = load double, ptr %D, align 8, !tbaa !3
  %div25 = fdiv double %38, 2.400000e+01
  %add26 = fadd double 1.000000e+00, %div25
  %39 = load double, ptr %D, align 8, !tbaa !3
  %40 = load double, ptr %D, align 8, !tbaa !3
  %mul27 = fmul double %39, %40
  %div28 = fdiv double %mul27, 1.920000e+03
  %add29 = fadd double %add26, %div28
  store double %add29, ptr %E_1, align 8, !tbaa !3
  call void @llvm.lifetime.start.p0(i64 8, ptr %E_2) #13
  %41 = load double, ptr %C, align 8, !tbaa !3
  %div30 = fdiv double %41, 2.400000e+01
  %add31 = fadd double 1.000000e+00, %div30
  %42 = load double, ptr %C, align 8, !tbaa !3
  %43 = load double, ptr %C, align 8, !tbaa !3
  %mul32 = fmul double %42, %43
  %div33 = fdiv double %mul32, 1.920000e+03
  %add34 = fadd double %add31, %div33
  store double %add34, ptr %E_2, align 8, !tbaa !3
  call void @llvm.lifetime.start.p0(i64 8, ptr %E) #13
  %44 = load double, ptr %E_1, align 8, !tbaa !3
  %45 = load double, ptr %E_2, align 8, !tbaa !3
  %div35 = fdiv double %44, %45
  store double %div35, ptr %E, align 8, !tbaa !3
  call void @llvm.lifetime.start.p0(i64 8, ptr %d) #13
  %46 = load double, ptr %expiryTime.addr, align 8, !tbaa !3
  %47 = load double, ptr %minusBeta, align 8, !tbaa !3
  %48 = load double, ptr %beta.addr, align 8, !tbaa !3
  %sub36 = fsub double 2.000000e+00, %48
  %mul37 = fmul double %47, %sub36
  %49 = load double, ptr %alpha.addr, align 8, !tbaa !3
  %mul38 = fmul double %mul37, %49
  %50 = load double, ptr %alpha.addr, align 8, !tbaa !3
  %mul39 = fmul double %mul38, %50
  %51 = load double, ptr %A, align 8, !tbaa !3
  %mul40 = fmul double 2.400000e+01, %51
  %div41 = fdiv double %mul39, %mul40
  %52 = load double, ptr %rho.addr, align 8, !tbaa !3
  %mul42 = fmul double 2.500000e-01, %52
  %53 = load double, ptr %beta.addr, align 8, !tbaa !3
  %mul43 = fmul double %mul42, %53
  %54 = load double, ptr %nu.addr, align 8, !tbaa !3
  %mul44 = fmul double %mul43, %54
  %55 = load double, ptr %alpha.addr, align 8, !tbaa !3
  %mul45 = fmul double %mul44, %55
  %56 = load double, ptr %sqrtA, align 8, !tbaa !3
  %div46 = fdiv double %mul45, %56
  %add47 = fadd double %div41, %div46
  %57 = load double, ptr %rho.addr, align 8, !tbaa !3
  %mul48 = fmul double 3.000000e+00, %57
  %58 = load double, ptr %rho.addr, align 8, !tbaa !3
  %neg50 = fneg double %mul48
  %59 = call double @llvm.fmuladd.f64(double %neg50, double %58, double 2.000000e+00)
  %60 = load double, ptr %nu.addr, align 8, !tbaa !3
  %61 = load double, ptr %nu.addr, align 8, !tbaa !3
  %mul51 = fmul double %60, %61
  %div52 = fdiv double %mul51, 2.400000e+01
  %62 = call double @llvm.fmuladd.f64(double %59, double %div52, double %add47)
  %63 = call double @llvm.fmuladd.f64(double %46, double %62, double 1.000000e+00)
  store double %63, ptr %d, align 8, !tbaa !3
  call void @llvm.lifetime.start.p0(i64 8, ptr %multiplier) #13
  %64 = load double, ptr %z, align 8, !tbaa !3
  %65 = load double, ptr %z, align 8, !tbaa !3
  %mul55 = fmul double %64, %65
  %66 = call double @llvm.fabs.f64(double %mul55)
  %call56 = call noundef double @_ZNSt14numeric_limitsIdE7epsilonEv() #13
  %mul57 = fmul double %call56, 1.000000e+01
  %cmp = fcmp ogt double %66, %mul57
  br i1 %cmp, label %if.then58, label %if.else60

if.then58:                                        ; preds = %if.end
  %67 = load double, ptr %z, align 8, !tbaa !3
  %68 = load double, ptr %xx, align 8, !tbaa !3
  %div59 = fdiv double %67, %68
  store double %div59, ptr %multiplier, align 8, !tbaa !3
  br label %if.end70

if.else60:                                        ; preds = %if.end
  %69 = load double, ptr %rho.addr, align 8, !tbaa !3
  %mul61 = fmul double 5.000000e-01, %69
  %70 = load double, ptr %z, align 8, !tbaa !3
  %neg63 = fneg double %mul61
  %71 = call double @llvm.fmuladd.f64(double %neg63, double %70, double 1.000000e+00)
  %72 = load double, ptr %rho.addr, align 8, !tbaa !3
  %mul64 = fmul double 3.000000e+00, %72
  %73 = load double, ptr %rho.addr, align 8, !tbaa !3
  %74 = call double @llvm.fmuladd.f64(double %mul64, double %73, double -2.000000e+00)
  %75 = load double, ptr %z, align 8, !tbaa !3
  %mul66 = fmul double %74, %75
  %76 = load double, ptr %z, align 8, !tbaa !3
  %mul67 = fmul double %mul66, %76
  %div68 = fdiv double %mul67, 1.200000e+01
  %sub69 = fsub double %71, %div68
  store double %sub69, ptr %multiplier, align 8, !tbaa !3
  br label %if.end70

if.end70:                                         ; preds = %if.else60, %if.then58
  call void @llvm.lifetime.start.p0(i64 8, ptr %F) #13
  %77 = load double, ptr %alpha.addr, align 8, !tbaa !3
  %78 = load double, ptr %forward.addr, align 8, !tbaa !3
  %79 = load double, ptr %strike.addr, align 8, !tbaa !3
  %mul71 = fmul double %78, %79
  %80 = load double, ptr %beta.addr, align 8, !tbaa !3
  %div72 = fdiv double %80, 2.000000e+00
  %call73 = call double @pow(double noundef %mul71, double noundef %div72) #13, !tbaa !7
  %mul74 = fmul double %77, %call73
  store double %mul74, ptr %F, align 8, !tbaa !3
  %81 = load double, ptr %F, align 8, !tbaa !3
  %82 = load double, ptr %E, align 8, !tbaa !3
  %mul75 = fmul double %81, %82
  %83 = load double, ptr %multiplier, align 8, !tbaa !3
  %mul76 = fmul double %mul75, %83
  %84 = load double, ptr %d, align 8, !tbaa !3
  %mul77 = fmul double %mul76, %84
  call void @llvm.lifetime.end.p0(i64 8, ptr %F) #13
  call void @llvm.lifetime.end.p0(i64 8, ptr %multiplier) #13
  call void @llvm.lifetime.end.p0(i64 8, ptr %d) #13
  call void @llvm.lifetime.end.p0(i64 8, ptr %E) #13
  call void @llvm.lifetime.end.p0(i64 8, ptr %E_2) #13
  call void @llvm.lifetime.end.p0(i64 8, ptr %E_1) #13
  call void @llvm.lifetime.end.p0(i64 8, ptr %xx) #13
  call void @llvm.lifetime.end.p0(i64 8, ptr %tmp) #13
  call void @llvm.lifetime.end.p0(i64 8, ptr %D) #13
  call void @llvm.lifetime.end.p0(i64 8, ptr %C) #13
  call void @llvm.lifetime.end.p0(i64 8, ptr %B) #13
  call void @llvm.lifetime.end.p0(i64 8, ptr %z) #13
  call void @llvm.lifetime.end.p0(i64 8, ptr %logM) #13
  call void @llvm.lifetime.end.p0(i64 8, ptr %sqrtA) #13
  call void @llvm.lifetime.end.p0(i64 8, ptr %A) #13
  call void @llvm.lifetime.end.p0(i64 8, ptr %minusBeta) #13
  call void @llvm.lifetime.end.p0(i64 8, ptr %oneMinusBeta) #13
  ret double %mul77
}