; Function Attrs: mustprogress nofree nounwind willreturn memory(write) uwtable
define noundef double @_ZN8QuantLib26unsafeSabrNormalVolatilityEddddddd(double noundef %strike, double noundef %forward, double noundef %expiryTime, double noundef %alpha, double noundef %beta, double noundef %nu, double noundef %rho) local_unnamed_addr #0 {
entry:
  %sub = fsub double 1.000000e+00, %beta
  %mul1 = fmul double %strike, %forward
  %call = tail call double @pow(double noundef %mul1, double noundef %sub) #17, !tbaa !3
  %call2 = tail call double @sqrt(double noundef %call) #17, !tbaa !3
  %cmp.i = fcmp oeq double %forward, %strike
  %.pre = fsub double %forward, %strike
  br i1 %cmp.i, label %if.else, label %if.end.i

if.end.i:                                         ; preds = %entry
  %0 = tail call double @llvm.fabs.f64(double %.pre)
  %cmp1.i = fcmp oeq double %forward, 0.000000e+00
  %cmp2.i = fcmp oeq double %strike, 0.000000e+00
  %or.cond.i = or i1 %cmp2.i, %cmp1.i
  br i1 %or.cond.i, label %if.then3.i, label %_ZN8QuantLib5closeEdd.exit

if.then3.i:                                       ; preds = %if.end.i
  %cmp4.i = fcmp olt double %0, 0x3A1B900000000000
  br i1 %cmp4.i, label %if.else, label %if.then

_ZN8QuantLib5closeEdd.exit:                       ; preds = %if.end.i
  %1 = tail call double @llvm.fabs.f64(double %forward)
  %mul.i = fmul double %1, 0x3D05000000000000
  %cmp6.i = fcmp ole double %0, %mul.i
  %2 = tail call double @llvm.fabs.f64(double %strike)
  %mul7.i = fmul double %2, 0x3D05000000000000
  %cmp8.i = fcmp ole double %0, %mul7.i
  %3 = and i1 %cmp6.i, %cmp8.i
  br i1 %3, label %if.else, label %if.then

if.then:                                          ; preds = %if.then3.i, %_ZN8QuantLib5closeEdd.exit
  %div = fdiv double %forward, %strike
  %call4 = tail call double @log(double noundef %div) #17, !tbaa !3
  br label %if.end

if.else:                                          ; preds = %entry, %if.then3.i, %_ZN8QuantLib5closeEdd.exit
  %div6 = fdiv double %.pre, %strike
  %neg = fmul double %div6, -5.000000e-01
  %4 = tail call double @llvm.fmuladd.f64(double %neg, double %div6, double %div6)
  br label %if.end

if.end:                                           ; preds = %if.else, %if.then
  %logM.0 = phi double [ %4, %if.else ], [ %call4, %if.then ]
  %div9 = fdiv double %nu, %alpha
  %mul10 = fmul double %div9, %call2
  %mul11 = fmul double %mul10, %logM.0
  %neg14 = fmul double %rho, -2.000000e+00
  %5 = tail call double @llvm.fmuladd.f64(double %neg14, double %mul11, double 1.000000e+00)
  %6 = tail call double @llvm.fmuladd.f64(double %mul11, double %mul11, double %5)
  %call20 = tail call double @sqrt(double noundef %6) #17, !tbaa !3
  %add = fadd double %call20, %mul11
  %sub21 = fsub double %add, %rho
  %sub22 = fsub double 1.000000e+00, %rho
  %div23 = fdiv double %sub21, %sub22
  %call24 = tail call double @log(double noundef %div23) #17, !tbaa !3
  %mul48 = fmul double %rho, 3.000000e+00
  %mul55 = fmul double %mul11, %mul11
  %7 = tail call double @llvm.fabs.f64(double %mul55)
  %cmp = fcmp ogt double %7, 0x3CE4000000000000
  br i1 %cmp, label %if.then58, label %if.else60

if.then58:                                        ; preds = %if.end
  %div59 = fdiv double %mul11, %call24
  br label %if.end70

if.else60:                                        ; preds = %if.end
  %neg63 = fmul double %rho, -5.000000e-01
  %8 = tail call double @llvm.fmuladd.f64(double %neg63, double %mul11, double 1.000000e+00)
  %9 = tail call double @llvm.fmuladd.f64(double %mul48, double %rho, double -2.000000e+00)
  %mul66 = fmul double %9, %mul11
  %mul67 = fmul double %mul11, %mul66
  %div68 = fdiv double %mul67, 1.200000e+01
  %sub69 = fsub double %8, %div68
  br label %if.end70

if.end70:                                         ; preds = %if.else60, %if.then58
  %multiplier.0 = phi double [ %div59, %if.then58 ], [ %sub69, %if.else60 ]
  %neg50 = fneg double %mul48
  %10 = tail call double @llvm.fmuladd.f64(double %neg50, double %rho, double 2.000000e+00)
  %mul51 = fmul double %nu, %nu
  %div52 = fdiv double %mul51, 2.400000e+01
  %sub36 = fsub double 2.000000e+00, %beta
  %mul = fneg double %beta
  %mul37 = fmul double %sub36, %mul
  %mul38 = fmul double %alpha, %mul37
  %mul39 = fmul double %alpha, %mul38
  %mul40 = fmul double %call, 2.400000e+01
  %div41 = fdiv double %mul39, %mul40
  %mul42 = fmul double %rho, 2.500000e-01
  %mul43 = fmul double %beta, %mul42
  %mul44 = fmul double %nu, %mul43
  %mul45 = fmul double %alpha, %mul44
  %div46 = fdiv double %mul45, %call2
  %add47 = fadd double %div41, %div46
  %11 = tail call double @llvm.fmuladd.f64(double %10, double %div52, double %add47)
  %12 = tail call double @llvm.fmuladd.f64(double %expiryTime, double %11, double 1.000000e+00)
  %mul19 = fmul double %logM.0, %logM.0
  %div25 = fdiv double %mul19, 2.400000e+01
  %add26 = fadd double %div25, 1.000000e+00
  %mul27 = fmul double %mul19, %mul19
  %div28 = fdiv double %mul27, 1.920000e+03
  %add29 = fadd double %add26, %div28
  %mul16 = fmul double %sub, %sub
  %mul17 = fmul double %mul16, %logM.0
  %mul18 = fmul double %logM.0, %mul17
  %div30 = fdiv double %mul18, 2.400000e+01
  %add31 = fadd double %div30, 1.000000e+00
  %mul32 = fmul double %mul18, %mul18
  %div33 = fdiv double %mul32, 1.920000e+03
  %add34 = fadd double %add31, %div33
  %div35 = fdiv double %add29, %add34
  %div72 = fmul double %beta, 5.000000e-01
  %call73 = tail call double @pow(double noundef %mul1, double noundef %div72) #17, !tbaa !3
  %mul74 = fmul double %alpha, %call73
  %mul75 = fmul double %div35, %mul74
  %mul76 = fmul double %multiplier.0, %mul75
  %mul77 = fmul double %12, %mul76
  ret double %mul77
}